# SymbolsHelper-Confirmed: 5.25.0~ amd64
libKF5Prison.so.5 libkf5prison5 #MINVER#
 _ZN6Prison13QRCodeBarcode10paintImageERK6QSizeF@Base 5.25.0~
 _ZN6Prison13QRCodeBarcodeC1Ev@Base 5.25.0~
 _ZN6Prison13QRCodeBarcodeC2Ev@Base 5.25.0~
 _ZN6Prison13QRCodeBarcodeD0Ev@Base 5.25.0~
 _ZN6Prison13QRCodeBarcodeD1Ev@Base 5.25.0~
 _ZN6Prison13QRCodeBarcodeD2Ev@Base 5.25.0~
 _ZN6Prison13createBarcodeENS_11BarcodeTypeE@Base 5.25.0~
 _ZN6Prison15AbstractBarcode14setMinimumSizeERK6QSizeF@Base 5.25.0~
 _ZN6Prison15AbstractBarcode18setBackgroundColorERK6QColor@Base 5.25.0~
 _ZN6Prison15AbstractBarcode18setForegroundColorERK6QColor@Base 5.25.0~
 _ZN6Prison15AbstractBarcode7setDataERK7QString@Base 5.25.0~
 _ZN6Prison15AbstractBarcode7toImageERK6QSizeF@Base 5.25.0~
 _ZN6Prison15AbstractBarcodeC1Ev@Base 5.25.0~
 _ZN6Prison15AbstractBarcodeC2Ev@Base 5.25.0~
 _ZN6Prison15AbstractBarcodeD0Ev@Base 5.25.0~
 _ZN6Prison15AbstractBarcodeD1Ev@Base 5.25.0~
 _ZN6Prison15AbstractBarcodeD2Ev@Base 5.25.0~
 _ZNK6Prison15AbstractBarcode11minimumSizeEv@Base 5.25.0~
 _ZNK6Prison15AbstractBarcode15backgroundColorEv@Base 5.25.0~
 _ZNK6Prison15AbstractBarcode15foregroundColorEv@Base 5.25.0~
 _ZNK6Prison15AbstractBarcode4dataEv@Base 5.25.0~
 _ZTIN6Prison13QRCodeBarcodeE@Base 5.25.0~
 _ZTIN6Prison15AbstractBarcodeE@Base 5.25.0~
 _ZTSN6Prison13QRCodeBarcodeE@Base 5.25.0~
 _ZTSN6Prison15AbstractBarcodeE@Base 5.25.0~
 _ZTVN6Prison13QRCodeBarcodeE@Base 5.25.0~
 _ZTVN6Prison15AbstractBarcodeE@Base 5.25.0~
